target datalayout = "e-m:e-p270:32:32-p271:32:32-p272:64:64-i64:64-i128:128-f80:128-n8:16:32:64-S128"
target triple = "x86_64-pc-linux-gnu"

%union.SourceSpan = type { i64 }
%struct.VHeader_ = type { i32, i32, [0 x i8] }
%struct.Decl_ = type { ptr, ptr, %union.SourceSpan, i64, %union.anon, i32, %union.anon.4, i64, ptr, ptr, ptr, %union.anon.5 }
%union.anon = type { ptr }
%union.anon.4 = type { i16 }
%union.anon.5 = type { %struct.FuncDecl }
%struct.FuncDecl = type { i32, [4 x i8], %struct.Signature_, i32, i32, %union.anon.12 }
%struct.Signature_ = type <{ %struct.CalleeAttributes, i16, i8, i32, i32, [4 x i8], ptr }>
%struct.CalleeAttributes = type { i8 }
%union.anon.12 = type { %struct.anon.13 }
%struct.anon.13 = type { i16, %union.anon.14 }
%union.anon.14 = type { ptr }
%struct.Type_ = type { i32, ptr, ptr, ptr, %union.anon.90, ptr, ptr, %union.anon.92 }
%union.anon.90 = type { ptr }
%union.anon.92 = type { %struct.TypeFunction }
%struct.TypeFunction = type { ptr, ptr, ptr }
%struct.anon.6 = type { ptr, ptr, %union.anon.7 }
%union.anon.7 = type { %struct.BitStructDecl }
%struct.BitStructDecl = type { ptr, ptr, i8 }
%struct.ConstInitializer_ = type { i32, ptr, %union.anon.93 }
%union.anon.93 = type { %struct.anon.94 }
%struct.anon.94 = type { ptr, i32 }
%struct.anon.96 = type { ptr, i32 }
%struct.TypeArray = type { ptr, i32 }
%struct.anon.95 = type { ptr }
%struct.StructDecl = type { i32, ptr, i32, i16 }

@.str = private unnamed_addr constant [36 x i8] c"FATAL ERROR %s -> in %s @ in %s:%d \00", align 1
@.str.1 = private unnamed_addr constant [22 x i8] c"Should be unreachable\00", align 1
@.str.2 = private unnamed_addr constant [114 x i8] c"generated/home/dtcxzyw/WorkSpace/Projects/compilers/llvm-opt-benchmark/bench/c3c/c3c/src/compiler/sema_liveness.c\00", align 1
@__func__.sema_trace_const_initializer_liveness = private unnamed_addr constant [38 x i8] c"sema_trace_const_initializer_liveness\00", align 1

; Function Attrs: nounwind uwtable
define internal void @sema_trace_const_initializer_liveness(ptr noundef %0) #0 {
  %2 = alloca i32, align 4
  %3 = alloca ptr, align 8
  %4 = alloca ptr, align 8
  %5 = alloca i32, align 4
  %6 = alloca ptr, align 8
  %7 = alloca ptr, align 8
  %8 = alloca ptr, align 8
  %9 = alloca ptr, align 8
  %10 = alloca ptr, align 8
  %11 = alloca i32, align 4
  %12 = alloca i32, align 4
  %13 = alloca ptr, align 8
  %14 = alloca i32, align 4
  %15 = alloca i32, align 4
  %16 = alloca ptr, align 8
  %17 = alloca ptr, align 8
  %18 = alloca ptr, align 8
  %19 = alloca i32, align 4
  %20 = alloca i32, align 4
  store ptr %0, ptr %8, align 8
  br label %21

21:                                               ; preds = %89, %26, %1
  %22 = load ptr, ptr %8, align 8
  %23 = getelementptr inbounds %struct.ConstInitializer_, ptr %22, i32 0, i32 0
  %24 = load i32, ptr %23, align 8
  switch i32 %24, label %147 [
    i32 0, label %25
    i32 6, label %26
    i32 5, label %31
    i32 4, label %56
    i32 2, label %89
    i32 1, label %94
    i32 3, label %143
  ]

25:                                               ; preds = %21
  br label %149

26:                                               ; preds = %21
  %27 = load ptr, ptr %8, align 8
  %28 = getelementptr inbounds %struct.ConstInitializer_, ptr %27, i32 0, i32 2
  %29 = getelementptr inbounds %struct.anon.96, ptr %28, i32 0, i32 0
  %30 = load ptr, ptr %29, align 8
  store ptr %30, ptr %8, align 8
  br label %21

31:                                               ; preds = %21
  %32 = load ptr, ptr %8, align 8
  %33 = getelementptr inbounds %struct.ConstInitializer_, ptr %32, i32 0, i32 1
  %34 = load ptr, ptr %33, align 8
  store ptr %34, ptr %9, align 8
  %35 = load ptr, ptr %8, align 8
  %36 = getelementptr inbounds %struct.ConstInitializer_, ptr %35, i32 0, i32 2
  %37 = load ptr, ptr %36, align 8
  store ptr %37, ptr %10, align 8
  %38 = load ptr, ptr %9, align 8
  %39 = getelementptr inbounds %struct.Type_, ptr %38, i32 0, i32 7
  %40 = getelementptr inbounds %struct.TypeArray, ptr %39, i32 0, i32 1
  %41 = load i32, ptr %40, align 8
  store i32 %41, ptr %11, align 4
  store i32 0, ptr %12, align 4
  br label %42

42:                                               ; preds = %52, %31
  %43 = load i32, ptr %12, align 4
  %44 = load i32, ptr %11, align 4
  %45 = icmp slt i32 %43, %44
  br i1 %45, label %46, label %55

46:                                               ; preds = %42
  %47 = load ptr, ptr %10, align 8
  %48 = load i32, ptr %12, align 4
  %49 = sext i32 %48 to i64
  %50 = getelementptr inbounds ptr, ptr %47, i64 %49
  %51 = load ptr, ptr %50, align 8
  call void @sema_trace_const_initializer_liveness(ptr noundef %51)
  br label %52

52:                                               ; preds = %46
  %53 = load i32, ptr %12, align 4
  %54 = add nsw i32 %53, 1
  store i32 %54, ptr %12, align 4
  br label %42, !llvm.loop !29

55:                                               ; preds = %42
  br label %149

56:                                               ; preds = %21
  %57 = load ptr, ptr %8, align 8
  %58 = getelementptr inbounds %struct.ConstInitializer_, ptr %57, i32 0, i32 2
  %59 = getelementptr inbounds %struct.anon.95, ptr %58, i32 0, i32 0
  %60 = load ptr, ptr %59, align 8
  store ptr %60, ptr %13, align 8
  %61 = load ptr, ptr %13, align 8
  store ptr %61, ptr %3, align 8
  %62 = load ptr, ptr %3, align 8
  %63 = icmp ne ptr %62, null
  br i1 %63, label %65, label %64

64:                                               ; preds = %56
  store i32 0, ptr %2, align 4
  br label %70

65:                                               ; preds = %56
  %66 = load ptr, ptr %3, align 8
  store ptr %66, ptr %4, align 8
  %67 = load ptr, ptr %4, align 8
  %68 = getelementptr inbounds %struct.VHeader_, ptr %67, i64 -1
  %69 = load i32, ptr %68, align 4
  store i32 %69, ptr %2, align 4
  br label %70

70:                                               ; preds = %65, %64
  %71 = load i32, ptr %2, align 4
  store i32 %71, ptr %14, align 4
  store i32 0, ptr %15, align 4
  br label %72

72:                                               ; preds = %83, %70
  %73 = load i32, ptr %15, align 4
  %74 = load i32, ptr %14, align 4
  %75 = icmp ult i32 %73, %74
  br i1 %75, label %76, label %86

76:                                               ; preds = %72
  %77 = load ptr, ptr %13, align 8
  %78 = load i32, ptr %15, align 4
  %79 = zext i32 %78 to i64
  %80 = getelementptr inbounds ptr, ptr %77, i64 %79
  %81 = load ptr, ptr %80, align 8
  store ptr %81, ptr %16, align 8
  %82 = load ptr, ptr %16, align 8
  call void @sema_trace_const_initializer_liveness(ptr noundef %82)
  br label %83

83:                                               ; preds = %76
  %84 = load i32, ptr %15, align 4
  %85 = add i32 %84, 1
  store i32 %85, ptr %15, align 4
  br label %72, !llvm.loop !30

86:                                               ; preds = %72
  br label %87

87:                                               ; preds = %86
  br label %88

88:                                               ; preds = %87
  br label %149

89:                                               ; preds = %21
  %90 = load ptr, ptr %8, align 8
  %91 = getelementptr inbounds %struct.ConstInitializer_, ptr %90, i32 0, i32 2
  %92 = getelementptr inbounds %struct.anon.94, ptr %91, i32 0, i32 0
  %93 = load ptr, ptr %92, align 8
  store ptr %93, ptr %8, align 8
  br label %21

94:                                               ; preds = %21
  %95 = load ptr, ptr %8, align 8
  %96 = getelementptr inbounds %struct.ConstInitializer_, ptr %95, i32 0, i32 1
  %97 = load ptr, ptr %96, align 8
  %98 = getelementptr inbounds %struct.Type_, ptr %97, i32 0, i32 7
  %99 = load ptr, ptr %98, align 8
  store ptr %99, ptr %17, align 8
  %100 = load ptr, ptr %17, align 8
  %101 = getelementptr inbounds %struct.Decl_, ptr %100, i32 0, i32 11
  %102 = getelementptr inbounds %struct.anon.6, ptr %101, i32 0, i32 2
  %103 = getelementptr inbounds %struct.StructDecl, ptr %102, i32 0, i32 1
  %104 = load ptr, ptr %103, align 8
  store ptr %104, ptr %18, align 8
  %105 = load ptr, ptr %18, align 8
  store ptr %105, ptr %6, align 8
  %106 = load ptr, ptr %6, align 8
  %107 = icmp ne ptr %106, null
  br i1 %107, label %109, label %108

108:                                              ; preds = %94
  store i32 0, ptr %5, align 4
  br label %114

109:                                              ; preds = %94
  %110 = load ptr, ptr %6, align 8
  store ptr %110, ptr %7, align 8
  %111 = load ptr, ptr %7, align 8
  %112 = getelementptr inbounds %struct.VHeader_, ptr %111, i64 -1
  %113 = load i32, ptr %112, align 4
  store i32 %113, ptr %5, align 4
  br label %114

114:                                              ; preds = %109, %108
  %115 = load i32, ptr %5, align 4
  store i32 %115, ptr %19, align 4
  %116 = load ptr, ptr %17, align 8
  %117 = getelementptr inbounds %struct.Decl_, ptr %116, i32 0, i32 3
  %118 = load i64, ptr %117, align 8
  %119 = and i64 %118, 127
  %120 = trunc i64 %119 to i32
  %121 = icmp eq i32 %120, 25
  br i1 %121, label %122, label %126

122:                                              ; preds = %114
  %123 = load i32, ptr %19, align 4
  %124 = icmp ne i32 %123, 0
  br i1 %124, label %125, label %126

125:                                              ; preds = %122
  store i32 1, ptr %19, align 4
  br label %126

126:                                              ; preds = %125, %122, %114
  store i32 0, ptr %20, align 4
  br label %127

127:                                              ; preds = %139, %126
  %128 = load i32, ptr %20, align 4
  %129 = load i32, ptr %19, align 4
  %130 = icmp ult i32 %128, %129
  br i1 %130, label %131, label %142

131:                                              ; preds = %127
  %132 = load ptr, ptr %8, align 8
  %133 = getelementptr inbounds %struct.ConstInitializer_, ptr %132, i32 0, i32 2
  %134 = load ptr, ptr %133, align 8
  %135 = load i32, ptr %20, align 4
  %136 = sext i32 %135 to i64
  %137 = getelementptr inbounds ptr, ptr %134, i64 %136
  %138 = load ptr, ptr %137, align 8
  call void @sema_trace_const_initializer_liveness(ptr noundef %138)
  br label %139

139:                                              ; preds = %131
  %140 = load i32, ptr %20, align 4
  %141 = add nsw i32 %140, 1
  store i32 %141, ptr %20, align 4
  br label %127, !llvm.loop !31

142:                                              ; preds = %127
  br label %149

143:                                              ; preds = %21
  %144 = load ptr, ptr %8, align 8
  %145 = getelementptr inbounds %struct.ConstInitializer_, ptr %144, i32 0, i32 2
  %146 = load ptr, ptr %145, align 8
  call void @sema_trace_expr_liveness(ptr noundef %146)
  br label %149

147:                                              ; preds = %21
  br label %148

148:                                              ; preds = %147
  call void (ptr, ...) @error_exit(ptr noundef @.str, ptr noundef @.str.1, ptr noundef @__func__.sema_trace_const_initializer_liveness, ptr noundef @.str.2, i32 noundef 254) #4
  unreachable

149:                                              ; preds = %143, %142, %88, %55, %25
  ret void
}