; Function Attrs: nounwind uwtable
define internal fastcc void @sema_trace_const_initializer_liveness(ptr nocapture noundef readonly %0) unnamed_addr #0 {
  br label %2

2:                                                ; preds = %.backedge, %1
  %.040 = phi ptr [ %0, %1 ], [ %.040.be, %.backedge ]
  %3 = load i32, ptr %.040, align 8
  switch i32 %3, label %46 [
    i32 0, label %.loopexit
    i32 6, label %.backedge
    i32 5, label %4
    i32 4, label %14
    i32 2, label %.backedge
    i32 1, label %22
    i32 3, label %43
  ]

.backedge:                                        ; preds = %2, %2
  %.040.be.in = getelementptr inbounds i8, ptr %.040, i64 16
  %.040.be = load ptr, ptr %.040.be.in, align 8
  br label %2

4:                                                ; preds = %2
  %5 = getelementptr inbounds i8, ptr %.040, i64 8
  %6 = load ptr, ptr %5, align 8
  %7 = getelementptr inbounds i8, ptr %.040, i64 16
  %8 = load ptr, ptr %7, align 8
  %9 = getelementptr inbounds i8, ptr %6, i64 64
  %10 = load i32, ptr %9, align 8
  %11 = icmp sgt i32 %10, 0
  br i1 %11, label %.lr.ph58.preheader, label %.loopexit

.lr.ph58.preheader:                               ; preds = %4
  %wide.trip.count78 = zext nneg i32 %10 to i64
  br label %.lr.ph58

.lr.ph58:                                         ; preds = %.lr.ph58.preheader, %.lr.ph58
  %indvars.iv75 = phi i64 [ 0, %.lr.ph58.preheader ], [ %indvars.iv.next76, %.lr.ph58 ]
  %12 = getelementptr inbounds ptr, ptr %8, i64 %indvars.iv75
  %13 = load ptr, ptr %12, align 8
  tail call fastcc void @sema_trace_const_initializer_liveness(ptr noundef %13)
  %indvars.iv.next76 = add nuw nsw i64 %indvars.iv75, 1
  %exitcond79.not = icmp eq i64 %indvars.iv.next76, %wide.trip.count78
  br i1 %exitcond79.not, label %.loopexit, label %.lr.ph58, !llvm.loop !29

14:                                               ; preds = %2
  %15 = getelementptr inbounds i8, ptr %.040, i64 16
  %16 = load ptr, ptr %15, align 8
  %.not45 = icmp eq ptr %16, null
  br i1 %.not45, label %.loopexit, label %17

17:                                               ; preds = %14
  %18 = getelementptr inbounds i8, ptr %16, i64 -8
  %19 = load i32, ptr %18, align 4
  %.not60 = icmp eq i32 %19, 0
  br i1 %.not60, label %.loopexit, label %.lr.ph56.preheader

.lr.ph56.preheader:                               ; preds = %17
  %wide.trip.count73 = zext i32 %19 to i64
  br label %.lr.ph56

.lr.ph56:                                         ; preds = %.lr.ph56.preheader, %.lr.ph56
  %indvars.iv70 = phi i64 [ 0, %.lr.ph56.preheader ], [ %indvars.iv.next71, %.lr.ph56 ]
  %20 = getelementptr inbounds ptr, ptr %16, i64 %indvars.iv70
  %21 = load ptr, ptr %20, align 8
  tail call fastcc void @sema_trace_const_initializer_liveness(ptr noundef %21)
  %indvars.iv.next71 = add nuw nsw i64 %indvars.iv70, 1
  %exitcond74.not = icmp eq i64 %indvars.iv.next71, %wide.trip.count73
  br i1 %exitcond74.not, label %.loopexit, label %.lr.ph56, !llvm.loop !30

22:                                               ; preds = %2
  %23 = getelementptr inbounds i8, ptr %.040, i64 8
  %24 = load ptr, ptr %23, align 8
  %25 = getelementptr inbounds i8, ptr %24, i64 56
  %26 = load ptr, ptr %25, align 8
  %27 = getelementptr inbounds i8, ptr %26, i64 104
  %28 = load ptr, ptr %27, align 8
  %.not = icmp eq ptr %28, null
  br i1 %.not, label %32, label %29

29:                                               ; preds = %22
  %30 = getelementptr inbounds i8, ptr %28, i64 -8
  %31 = load i32, ptr %30, align 4
  br label %32

32:                                               ; preds = %22, %29
  %.039 = phi i32 [ %31, %29 ], [ 0, %22 ]
  %33 = getelementptr inbounds i8, ptr %26, i64 24
  %34 = load i64, ptr %33, align 8
  %35 = and i64 %34, 127
  %36 = icmp eq i64 %35, 25
  %37 = icmp ne i32 %.039, 0
  %or.cond = select i1 %36, i1 %37, i1 false
  %spec.store.select = select i1 %or.cond, i32 1, i32 %.039
  %.not59 = icmp eq i32 %spec.store.select, 0
  br i1 %.not59, label %.loopexit, label %.lr.ph

.lr.ph:                                           ; preds = %32
  %38 = getelementptr inbounds i8, ptr %.040, i64 16
  %wide.trip.count = zext i32 %spec.store.select to i64
  br label %39

39:                                               ; preds = %.lr.ph, %39
  %indvars.iv = phi i64 [ 0, %.lr.ph ], [ %indvars.iv.next, %39 ]
  %40 = load ptr, ptr %38, align 8
  %41 = getelementptr inbounds ptr, ptr %40, i64 %indvars.iv
  %42 = load ptr, ptr %41, align 8
  tail call fastcc void @sema_trace_const_initializer_liveness(ptr noundef %42)
  %indvars.iv.next = add nuw nsw i64 %indvars.iv, 1
  %exitcond.not = icmp eq i64 %indvars.iv.next, %wide.trip.count
  br i1 %exitcond.not, label %.loopexit, label %39, !llvm.loop !31

43:                                               ; preds = %2
  %44 = getelementptr inbounds i8, ptr %.040, i64 16
  %45 = load ptr, ptr %44, align 8
  tail call fastcc void @sema_trace_expr_liveness(ptr noundef %45)
  br label %.loopexit

46:                                               ; preds = %2
  tail call void (ptr, ...) @error_exit(ptr noundef nonnull @.str, ptr noundef nonnull @.str.1, ptr noundef nonnull @__func__.sema_trace_const_initializer_liveness, ptr noundef nonnull @.str.2, i32 noundef 254) #4
  unreachable

.loopexit:                                        ; preds = %2, %39, %.lr.ph56, %.lr.ph58, %14, %32, %17, %4, %43
  ret void
}